(dp0
VCITY
p1
S'Berlin'
p2
sVPLANT_ID
p3
S'0005'
p4
sVVENDOR_ID
p5
S'0000000003'
p6
sVZIP_CODE
p7
S'5519941104'
p8
sVFACTORY_CALENDAR_ID
p9
S'FR'
p10
sVSTREET
p11
S'Pillnitzer Strasse 241'
p12
sVCOUNTRY_CODE
p13
S'489'
p14
sVBLKD_STOCK_RLV_FLAG
p15
S'X'
p16
sVSTATE_CODE
p17
S'European park'
p18
sVPLANT_DESC
p19
S'0005Description here: New York'
p20
s.(dp0
VCITY
p1
S'Paris'
p2
sVPLANT_ID
p3
S'0001'
p4
sVVENDOR_ID
p5
S'0000000001'
p6
sVZIP_CODE
p7
S'2526226668'
p8
sVFACTORY_CALENDAR_ID
p9
S'FR'
p10
sVSTREET
p11
S'St. Michael street'
p12
sVCOUNTRY_CODE
p13
S'496'
p14
sVBLKD_STOCK_RLV_FLAG
p15
S'X'
p16
sVSTATE_CODE
p17
S'Hethbrew'
p18
sVPLANT_DESC
p19
S'0001Description here: Werk'
p20
s.(dp0
VCITY
p1
S'Frankfurt'
p2
sVPLANT_ID
p3
S'0005'
p4
sVVENDOR_ID
p5
S'0000000003'
p6
sVZIP_CODE
p7
S'2258134250'
p8
sVFACTORY_CALENDAR_ID
p9
S'JP'
p10
sVSTREET
p11
S'St. Michael street'
p12
sVCOUNTRY_CODE
p13
S'763'
p14
sVBLKD_STOCK_RLV_FLAG
p15
S'X'
p16
sVSTATE_CODE
p17
S'Hethbrew'
p18
sVPLANT_DESC
p19
S'0005Description here: Hamburg'
p20
s.(dp0
VCITY
p1
S'Hamburg'
p2
sVPLANT_ID
p3
S'0006'
p4
sVVENDOR_ID
p5
S'0000000002'
p6
sVZIP_CODE
p7
S'2645723496'
p8
sVFACTORY_CALENDAR_ID
p9
S'JP'
p10
sVSTREET
p11
S'Pillnitzer Strasse 241'
p12
sVCOUNTRY_CODE
p13
S'832'
p14
sVBLKD_STOCK_RLV_FLAG
p15
S'X'
p16
sVSTATE_CODE
p17
S'Hethbrew'
p18
sVPLANT_DESC
p19
S'0006Description here: Werk'
p20
s.(dp0
VCITY
p1
S'Berlin'
p2
sVPLANT_ID
p3
S'0006'
p4
sVVENDOR_ID
p5
S'0000000001'
p6
sVZIP_CODE
p7
S'1703219301'
p8
sVFACTORY_CALENDAR_ID
p9
S'CA'
p10
sVSTREET
p11
S'Neurottstrass 16'
p12
sVCOUNTRY_CODE
p13
S'533'
p14
sVBLKD_STOCK_RLV_FLAG
p15
S'X'
p16
sVSTATE_CODE
p17
S'European park'
p18
sVPLANT_DESC
p19
S'0006Description here: Werk'
p20
s.(dp0
VCITY
p1
S'Frankfurt'
p2
sVPLANT_ID
p3
S'0007'
p4
sVVENDOR_ID
p5
S'0000000001'
p6
sVZIP_CODE
p7
S'5462257914'
p8
sVFACTORY_CALENDAR_ID
p9
S'US'
p10
sVSTREET
p11
S'Pillnitzer Strasse 241'
p12
sVCOUNTRY_CODE
p13
S'112'
p14
sVBLKD_STOCK_RLV_FLAG
p15
S'X'
p16
sVSTATE_CODE
p17
S'Wunderland'
p18
sVPLANT_DESC
p19
S'0007Description here: Werk'
p20
s.(dp0
VCITY
p1
S'Paris'
p2
sVPLANT_ID
p3
S'0001'
p4
sVVENDOR_ID
p5
S'0000000004'
p6
sVZIP_CODE
p7
S'6059332570'
p8
sVFACTORY_CALENDAR_ID
p9
S'CA'
p10
sVSTREET
p11
S'Pillnitzer Strasse 241'
p12
sVCOUNTRY_CODE
p13
S'430'
p14
sVBLKD_STOCK_RLV_FLAG
p15
S'X'
p16
sVSTATE_CODE
p17
S'Wunderland'
p18
sVPLANT_DESC
p19
S'0001Description here: New York'
p20
s.(dp0
VCITY
p1
S'Hamburg'
p2
sVPLANT_ID
p3
S'0007'
p4
sVVENDOR_ID
p5
S'0000000002'
p6
sVZIP_CODE
p7
S'2062587639'
p8
sVFACTORY_CALENDAR_ID
p9
S'JP'
p10
sVSTREET
p11
S'Pillnitzer Strasse 241'
p12
sVCOUNTRY_CODE
p13
S'553'
p14
sVBLKD_STOCK_RLV_FLAG
p15
S'X'
p16
sVSTATE_CODE
p17
S'Wunderland'
p18
sVPLANT_DESC
p19
S'0007Description here: Hamburg'
p20
s.(dp0
VCITY
p1
S'Hamburg'
p2
sVPLANT_ID
p3
S'0007'
p4
sVVENDOR_ID
p5
S'0000000002'
p6
sVZIP_CODE
p7
S'2654588453'
p8
sVFACTORY_CALENDAR_ID
p9
S'01'
p10
sVSTREET
p11
S'St. Michael street'
p12
sVCOUNTRY_CODE
p13
S'230'
p14
sVBLKD_STOCK_RLV_FLAG
p15
S'X'
p16
sVSTATE_CODE
p17
S'Wunderland'
p18
sVPLANT_DESC
p19
S'0007Description here: Hamburg'
p20
s.(dp0
VCITY
p1
S'Hamburg'
p2
sVPLANT_ID
p3
S'0006'
p4
sVVENDOR_ID
p5
S'0000000004'
p6
sVZIP_CODE
p7
S'4772493348'
p8
sVFACTORY_CALENDAR_ID
p9
S'JP'
p10
sVSTREET
p11
S'Pillnitzer Strasse 241'
p12
sVCOUNTRY_CODE
p13
S'224'
p14
sVBLKD_STOCK_RLV_FLAG
p15
S'X'
p16
sVSTATE_CODE
p17
S'Wunderland'
p18
sVPLANT_DESC
p19
S'0006Description here: Hamburg'
p20
s.(dp0
VCITY
p1
S'Paris'
p2
sVPLANT_ID
p3
S'0005'
p4
sVVENDOR_ID
p5
S'0000000003'
p6
sVZIP_CODE
p7
S'7936449783'
p8
sVFACTORY_CALENDAR_ID
p9
S'01'
p10
sVSTREET
p11
S'Alsterdorfer Strasse 13'
p12
sVCOUNTRY_CODE
p13
S'123'
p14
sVBLKD_STOCK_RLV_FLAG
p15
S'X'
p16
sVSTATE_CODE
p17
S'European park'
p18
sVPLANT_DESC
p19
S'0005Description here: New York'
p20
s.(dp0
VCITY
p1
S'Hamburg'
p2
sVPLANT_ID
p3
S'0005'
p4
sVVENDOR_ID
p5
S'0000000004'
p6
sVZIP_CODE
p7
S'1877374963'
p8
sVFACTORY_CALENDAR_ID
p9
S'JP'
p10
sVSTREET
p11
S'St. Michael street'
p12
sVCOUNTRY_CODE
p13
S'235'
p14
sVBLKD_STOCK_RLV_FLAG
p15
S'X'
p16
sVSTATE_CODE
p17
S'Wunderland'
p18
sVPLANT_DESC
p19
S'0005Description here: Werk'
p20
s.(dp0
VCITY
p1
S'Hamburg'
p2
sVPLANT_ID
p3
S'0005'
p4
sVVENDOR_ID
p5
S'0000000001'
p6
sVZIP_CODE
p7
S'6597421352'
p8
sVFACTORY_CALENDAR_ID
p9
S'FR'
p10
sVSTREET
p11
S'Neurottstrass 16'
p12
sVCOUNTRY_CODE
p13
S'409'
p14
sVBLKD_STOCK_RLV_FLAG
p15
S'X'
p16
sVSTATE_CODE
p17
S'European park'
p18
sVPLANT_DESC
p19
S'0005Description here: Werk'
p20
s.(dp0
VCITY
p1
S'Hamburg'
p2
sVPLANT_ID
p3
S'0001'
p4
sVVENDOR_ID
p5
S'0000000003'
p6
sVZIP_CODE
p7
S'9336652089'
p8
sVFACTORY_CALENDAR_ID
p9
S'US'
p10
sVSTREET
p11
S'St. Michael street'
p12
sVCOUNTRY_CODE
p13
S'862'
p14
sVBLKD_STOCK_RLV_FLAG
p15
S'X'
p16
sVSTATE_CODE
p17
S'European park'
p18
sVPLANT_DESC
p19
S'0001Description here: Hamburg'
p20
s.(dp0
VCITY
p1
S'Frankfurt'
p2
sVPLANT_ID
p3
S'0005'
p4
sVVENDOR_ID
p5
S'0000000002'
p6
sVZIP_CODE
p7
S'7241462372'
p8
sVFACTORY_CALENDAR_ID
p9
S'US'
p10
sVSTREET
p11
S'Pillnitzer Strasse 241'
p12
sVCOUNTRY_CODE
p13
S'133'
p14
sVBLKD_STOCK_RLV_FLAG
p15
S'X'
p16
sVSTATE_CODE
p17
S'Wunderland'
p18
sVPLANT_DESC
p19
S'0005Description here: New York'
p20
s.(dp0
VCITY
p1
S'Paris'
p2
sVPLANT_ID
p3
S'0006'
p4
sVVENDOR_ID
p5
S'0000000003'
p6
sVZIP_CODE
p7
S'3189675780'
p8
sVFACTORY_CALENDAR_ID
p9
S'FR'
p10
sVSTREET
p11
S'St. Michael street'
p12
sVCOUNTRY_CODE
p13
S'451'
p14
sVBLKD_STOCK_RLV_FLAG
p15
S'X'
p16
sVSTATE_CODE
p17
S'European park'
p18
sVPLANT_DESC
p19
S'0006Description here: New York'
p20
s.(dp0
VCITY
p1
S'Paris'
p2
sVPLANT_ID
p3
S'0001'
p4
sVVENDOR_ID
p5
S'0000000001'
p6
sVZIP_CODE
p7
S'0752888923'
p8
sVFACTORY_CALENDAR_ID
p9
S'01'
p10
sVSTREET
p11
S'Neurottstrass 16'
p12
sVCOUNTRY_CODE
p13
S'563'
p14
sVBLKD_STOCK_RLV_FLAG
p15
S'X'
p16
sVSTATE_CODE
p17
S'European park'
p18
sVPLANT_DESC
p19
S'0001Description here: New York'
p20
s.